target datalayout = "e-m:e-p270:32:32-p271:32:32-p272:64:64-i64:64-i128:128-f80:128-n8:16:32:64-S128"
target triple = "x86_64-pc-linux-gnu"

%struct.H5D_chk_idx_info_t = type { ptr, ptr, ptr, ptr }
%struct.H5O_storage_chunk_t = type { i32, i64, ptr, %union.anon.4 }
%union.anon.4 = type { %struct.H5O_storage_chunk_btree_t }
%struct.H5O_storage_chunk_btree_t = type { i64, ptr }
%struct.H5O_storage_chunk_bt2_t = type { i64, ptr }

; Function Attrs: nounwind uwtable
define internal i32 @H5D__farray_idx_is_open(ptr noundef %0, ptr noundef %1) #0 {
  %3 = alloca ptr, align 8
  %4 = alloca ptr, align 8
  store ptr %0, ptr %3, align 8
  store ptr %1, ptr %4, align 8
  %5 = load ptr, ptr %3, align 8
  %6 = getelementptr inbounds %struct.H5D_chk_idx_info_t, ptr %5, i32 0, i32 3
  %7 = load ptr, ptr %6, align 8
  %8 = getelementptr inbounds %struct.H5O_storage_chunk_t, ptr %7, i32 0, i32 3
  %9 = getelementptr inbounds %struct.H5O_storage_chunk_bt2_t, ptr %8, i32 0, i32 1
  %10 = load ptr, ptr %9, align 8
  %11 = icmp ne ptr null, %10
  %12 = load ptr, ptr %4, align 8
  %13 = zext i1 %11 to i8
  store i8 %13, ptr %12, align 1
  ret i32 0
}